; Function Attrs: mustprogress nofree norecurse nosync nounwind willreturn memory(argmem: readwrite) uwtable
define void @_ZN10open_spiel5tarok10TarokState10NextPlayerEv(ptr noundef nonnull align 8 captures(none) dereferenceable(280) %0) local_unnamed_addr #15 align 2 {
  %2 = getelementptr inbounds nuw i8, ptr %0, i64 88
  %3 = load i32, ptr %2, align 8
  %4 = add nsw i32 %3, 1
  %5 = getelementptr inbounds nuw i8, ptr %0, i64 28
  %6 = load i32, ptr %5, align 4
  %7 = icmp eq i32 %4, %6
  %spec.store.select = select i1 %7, i32 0, i32 %4
  store i32 %spec.store.select, ptr %2, align 8
  ret void
}